target datalayout = "e-m:e-p270:32:32-p271:32:32-p272:64:64-i64:64-i128:128-f80:128-n8:16:32:64-S128"
target triple = "x86_64-pc-linux-gnu"

%"class.api::object" = type { ptr, %"struct.std::atomic", i32, ptr }
%"struct.std::atomic" = type { %"struct.std::__atomic_base" }
%"struct.std::__atomic_base" = type { i32 }
%"struct.opt::on_model_t" = type { ptr, ptr, ptr, ptr }
%class.ref.53 = type { ptr }
%class.ptr_vector.77 = type { %class.vector.78 }
%class.vector.78 = type { ptr }
%struct.Z3_model_ref = type { %"class.api::object", %class.ref.53 }
%class.model_core = type { ptr, ptr, i32, [4 x i8], %class.obj_map.107, %class.obj_map.112, %class.ptr_vector.77, %class.ptr_vector.77, %class.ptr_vector.77 }
%class.obj_map.107 = type { %class.core_hashtable.108 }
%class.core_hashtable.108 = type <{ ptr, i32, i32, i32, [4 x i8] }>
%class.obj_map.112 = type { %class.core_hashtable.113 }
%class.core_hashtable.113 = type <{ ptr, i32, i32, i32, [4 x i8] }>

; Function Attrs: mustprogress uwtable
define linkonce_odr hidden void @_Z7deallocI10model_coreEvPT_(ptr noundef %0) #6 comdat {
  %2 = alloca ptr, align 8
  store ptr %0, ptr %2, align 8, !tbaa !625
  %3 = load ptr, ptr %2, align 8, !tbaa !625
  %4 = icmp eq ptr %3, null
  br i1 %4, label %5, label %6

5:                                                ; preds = %1
  br label %12

6:                                                ; preds = %1
  %7 = load ptr, ptr %2, align 8, !tbaa !625
  %8 = load ptr, ptr %7, align 8, !tbaa !195
  %9 = getelementptr inbounds ptr, ptr %8, i64 0
  %10 = load ptr, ptr %9, align 8
  call void %10(ptr noundef nonnull align 8 dereferenceable(96) %7) #3
  %11 = load ptr, ptr %2, align 8, !tbaa !625
  call void @_ZN6memory10deallocateEPv(ptr noundef %11)
  br label %12

12:                                               ; preds = %6, %5
  ret void
}

; Function Attrs: mustprogress uwtable
define linkonce_odr hidden void @_ZN10model_core7dec_refEv(ptr noundef nonnull align 8 dereferenceable(96) %0) #6 comdat align 2 {
  %2 = alloca ptr, align 8
  store ptr %0, ptr %2, align 8, !tbaa !625
  %3 = load ptr, ptr %2, align 8
  %4 = getelementptr inbounds nuw %class.model_core, ptr %3, i32 0, i32 2
  %5 = load i32, ptr %4, align 8, !tbaa !627
  %6 = add i32 %5, -1
  store i32 %6, ptr %4, align 8, !tbaa !627
  %7 = getelementptr inbounds nuw %class.model_core, ptr %3, i32 0, i32 2
  %8 = load i32, ptr %7, align 8, !tbaa !627
  %9 = icmp eq i32 %8, 0
  br i1 %9, label %10, label %11

10:                                               ; preds = %1
  call void @_Z7deallocI10model_coreEvPT_(ptr noundef %3)
  br label %11

11:                                               ; preds = %10, %1
  ret void
}

; Function Attrs: mustprogress uwtable
define linkonce_odr hidden void @_ZN3refI5modelE7dec_refEv(ptr noundef nonnull align 8 dereferenceable(8) %0) #6 comdat align 2 {
  %2 = alloca ptr, align 8
  store ptr %0, ptr %2, align 8, !tbaa !252
  %3 = load ptr, ptr %2, align 8
  %4 = getelementptr inbounds nuw %class.ref.53, ptr %3, i32 0, i32 0
  %5 = load ptr, ptr %4, align 8, !tbaa !254
  %6 = icmp ne ptr %5, null
  br i1 %6, label %7, label %10

7:                                                ; preds = %1
  %8 = getelementptr inbounds nuw %class.ref.53, ptr %3, i32 0, i32 0
  %9 = load ptr, ptr %8, align 8, !tbaa !254
  call void @_ZN10model_core7dec_refEv(ptr noundef nonnull align 8 dereferenceable(96) %9)
  br label %10

10:                                               ; preds = %7, %1
  ret void
}

; Function Attrs: mustprogress nounwind uwtable
define linkonce_odr hidden void @_ZN10model_core7inc_refEv(ptr noundef nonnull align 8 dereferenceable(96) %0) #4 comdat align 2 {
  %2 = alloca ptr, align 8
  store ptr %0, ptr %2, align 8, !tbaa !625
  %3 = load ptr, ptr %2, align 8
  %4 = getelementptr inbounds nuw %class.model_core, ptr %3, i32 0, i32 2
  %5 = load i32, ptr %4, align 8, !tbaa !627
  %6 = add i32 %5, 1
  store i32 %6, ptr %4, align 8, !tbaa !627
  ret void
}

; Function Attrs: mustprogress uwtable
define linkonce_odr hidden noundef nonnull align 8 dereferenceable(8) ptr @_ZN3refI5modelEaSEPS0_(ptr noundef nonnull align 8 dereferenceable(8) %0, ptr noundef %1) #6 comdat align 2 {
  %3 = alloca ptr, align 8
  %4 = alloca ptr, align 8
  store ptr %0, ptr %3, align 8, !tbaa !252
  store ptr %1, ptr %4, align 8, !tbaa !267
  %5 = load ptr, ptr %3, align 8
  %6 = load ptr, ptr %4, align 8, !tbaa !267
  %7 = icmp ne ptr %6, null
  br i1 %7, label %8, label %10

8:                                                ; preds = %2
  %9 = load ptr, ptr %4, align 8, !tbaa !267
  call void @_ZN10model_core7inc_refEv(ptr noundef nonnull align 8 dereferenceable(96) %9)
  br label %10

10:                                               ; preds = %8, %2
  call void @_ZN3refI5modelE7dec_refEv(ptr noundef nonnull align 8 dereferenceable(8) %5)
  %11 = load ptr, ptr %4, align 8, !tbaa !267
  %12 = getelementptr inbounds nuw %class.ref.53, ptr %5, i32 0, i32 0
  store ptr %11, ptr %12, align 8, !tbaa !254
  ret ptr %5
}

; Function Attrs: mustprogress nounwind uwtable
define linkonce_odr hidden noundef ptr @_ZNK3refI5modelE3getEv(ptr noundef nonnull align 8 dereferenceable(8) %0) #4 comdat align 2 {
  %2 = alloca ptr, align 8
  store ptr %0, ptr %2, align 8, !tbaa !252
  %3 = load ptr, ptr %2, align 8
  %4 = getelementptr inbounds nuw %class.ref.53, ptr %3, i32 0, i32 0
  %5 = load ptr, ptr %4, align 8, !tbaa !254
  ret ptr %5
}

; Function Attrs: mustprogress uwtable
define internal void @_ZL17optimize_on_modelRN3opt10on_model_tER3refI5modelE(ptr noundef nonnull align 8 dereferenceable(32) %0, ptr noundef nonnull align 8 dereferenceable(8) %1) #6 {
  %3 = alloca ptr, align 8
  %4 = alloca ptr, align 8
  %5 = alloca ptr, align 8
  %6 = alloca ptr, align 8
  store ptr %0, ptr %3, align 8, !tbaa !383
  store ptr %1, ptr %4, align 8, !tbaa !252
  call void @llvm.lifetime.start.p0(i64 8, ptr %5) #3
  %7 = load ptr, ptr %3, align 8, !tbaa !383
  %8 = getelementptr inbounds nuw %"struct.opt::on_model_t", ptr %7, i32 0, i32 3
  %9 = load ptr, ptr %8, align 8, !tbaa !382
  store ptr %9, ptr %5, align 8, !tbaa !378
  call void @llvm.lifetime.start.p0(i64 8, ptr %6) #3
  %10 = load ptr, ptr %3, align 8, !tbaa !383
  %11 = getelementptr inbounds nuw %"struct.opt::on_model_t", ptr %10, i32 0, i32 1
  %12 = load ptr, ptr %11, align 8, !tbaa !380
  store ptr %12, ptr %6, align 8, !tbaa !248
  %13 = load ptr, ptr %4, align 8, !tbaa !252
  %14 = call noundef ptr @_ZNK3refI5modelE3getEv(ptr noundef nonnull align 8 dereferenceable(8) %13)
  %15 = load ptr, ptr %6, align 8, !tbaa !248
  %16 = getelementptr inbounds nuw %struct.Z3_model_ref, ptr %15, i32 0, i32 1
  %17 = call noundef nonnull align 8 dereferenceable(8) ptr @_ZN3refI5modelEaSEPS0_(ptr noundef nonnull align 8 dereferenceable(8) %16, ptr noundef %14)
  %18 = load ptr, ptr %5, align 8, !tbaa !378
  %19 = load ptr, ptr %3, align 8, !tbaa !383
  %20 = getelementptr inbounds nuw %"struct.opt::on_model_t", ptr %19, i32 0, i32 2
  %21 = load ptr, ptr %20, align 8, !tbaa !381
  call void %18(ptr noundef %21)
  call void @llvm.lifetime.end.p0(i64 8, ptr %6) #3
  call void @llvm.lifetime.end.p0(i64 8, ptr %5) #3
  ret void
}