; Function Attrs: mustprogress uwtable
define internal void @_ZL17optimize_on_modelRN3opt10on_model_tER3refI5modelE(ptr noundef nonnull readonly align 8 captures(none) dereferenceable(32) %0, ptr noundef nonnull readonly align 8 captures(none) dereferenceable(8) %1) #4 {
  %3 = getelementptr inbounds nuw i8, ptr %0, i64 24
  %4 = load ptr, ptr %3, align 8, !tbaa !416
  %5 = getelementptr inbounds nuw i8, ptr %0, i64 8
  %6 = load ptr, ptr %5, align 8, !tbaa !417
  %7 = load ptr, ptr %1, align 8, !tbaa !204
  %8 = getelementptr inbounds nuw i8, ptr %6, i64 24
  %.not.i = icmp eq ptr %7, null
  br i1 %.not.i, label %13, label %9

9:                                                ; preds = %2
  %10 = getelementptr inbounds nuw i8, ptr %7, i64 16
  %11 = load i32, ptr %10, align 8, !tbaa !216
  %12 = add i32 %11, 1
  store i32 %12, ptr %10, align 8, !tbaa !216
  br label %13

13:                                               ; preds = %9, %2
  %14 = load ptr, ptr %8, align 8, !tbaa !204
  %.not.i.i = icmp eq ptr %14, null
  br i1 %.not.i.i, label %_ZN3refI5modelEaSEPS0_.exit, label %15

15:                                               ; preds = %13
  %16 = getelementptr inbounds nuw i8, ptr %14, i64 16
  %17 = load i32, ptr %16, align 8, !tbaa !216
  %18 = add i32 %17, -1
  store i32 %18, ptr %16, align 8, !tbaa !216
  %19 = icmp eq i32 %18, 0
  br i1 %19, label %20, label %_ZN3refI5modelEaSEPS0_.exit

20:                                               ; preds = %15
  %21 = load ptr, ptr %14, align 8, !tbaa !157
  %22 = load ptr, ptr %21, align 8
  tail call void %22(ptr noundef nonnull align 8 dereferenceable(96) %14) #23
  tail call void @_ZN6memory10deallocateEPv(ptr noundef nonnull align 8 dereferenceable(96) %14)
  br label %_ZN3refI5modelEaSEPS0_.exit

_ZN3refI5modelEaSEPS0_.exit:                      ; preds = %13, %15, %20
  store ptr %7, ptr %8, align 8, !tbaa !204
  %23 = getelementptr inbounds nuw i8, ptr %0, i64 16
  %24 = load ptr, ptr %23, align 8, !tbaa !418
  tail call void %4(ptr noundef %24)
  ret void
}